; Function Attrs: mustprogress uwtable
define void @_ZN8QuantLib13TermStructure6updateEv(ptr noundef nonnull align 8 dereferenceable(64) %this) unnamed_addr #3 align 2 {
entry:
  %moving_ = getelementptr inbounds nuw i8, ptr %this, i64 9
  %0 = load i8, ptr %moving_, align 1, !tbaa !10, !range !42, !noundef !43
  %loadedv = trunc nuw i8 %0 to i1
  br i1 %loadedv, label %if.then, label %if.end

if.then:                                          ; preds = %entry
  %updated_ = getelementptr inbounds nuw i8, ptr %this, i64 10
  store i8 0, ptr %updated_, align 2, !tbaa !21
  br label %if.end

if.end:                                           ; preds = %if.then, %entry
  %vtable = load ptr, ptr %this, align 8, !tbaa !3
  %vbase.offset.ptr = getelementptr i8, ptr %vtable, i64 -32
  %vbase.offset = load i64, ptr %vbase.offset.ptr, align 8
  %add.ptr = getelementptr inbounds i8, ptr %this, i64 %vbase.offset
  tail call void @_ZN8QuantLib10Observable15notifyObserversEv(ptr noundef nonnull align 8 dereferenceable(56) %add.ptr)
  ret void
}